; Function Attrs: nounwind uwtable
define void @Gia_AcecCollectXors_rec(ptr noundef readonly captures(none) %0, ptr noundef %1, ptr noundef readnone captures(none) %2, ptr noundef captures(none) %3) local_unnamed_addr #2 {
  %.val17 = load i64, ptr %1, align 4
  %5 = and i64 %.val17, 2147483648
  %.not.i.i18 = icmp ne i64 %5, 0
  %6 = and i64 %.val17, 536870911
  %7 = icmp eq i64 %6, 536870911
  %narrow.i.not.i19 = or i1 %.not.i.i18, %7
  br i1 %narrow.i.not.i19, label %Gia_ObjIsXor.exit.thread, label %Gia_ObjIsXor.exit.lr.ph

Gia_ObjIsXor.exit.lr.ph:                          ; preds = %4
  %8 = getelementptr i8, ptr %0, i64 32
  %9 = getelementptr inbounds nuw i8, ptr %3, i64 4
  %.phi.trans.insert.i = getelementptr inbounds nuw i8, ptr %3, i64 8
  br label %Gia_ObjIsXor.exit

Gia_ObjIsXor.exit:                                ; preds = %Gia_ObjIsXor.exit.lr.ph, %Vec_IntPush.exit
  %.val21 = phi i64 [ %.val17, %Gia_ObjIsXor.exit.lr.ph ], [ %.val, %Vec_IntPush.exit ]
  %.tr1420 = phi ptr [ %1, %Gia_ObjIsXor.exit.lr.ph ], [ %57, %Vec_IntPush.exit ]
  %10 = trunc i64 %.val21 to i32
  %11 = and i32 %10, 536870911
  %12 = lshr i64 %.val21, 32
  %13 = trunc nuw i64 %12 to i32
  %14 = and i32 %13, 536870911
  %.not = icmp samesign ult i32 %11, %14
  br i1 %.not, label %15, label %Gia_ObjIsXor.exit.thread

15:                                               ; preds = %Gia_ObjIsXor.exit
  %.val12 = load ptr, ptr %8, align 8, !tbaa !3
  %16 = ptrtoint ptr %.tr1420 to i64
  %17 = ptrtoint ptr %.val12 to i64
  %18 = sub i64 %16, %17
  %19 = sdiv exact i64 %18, 12
  %20 = trunc i64 %19 to i32
  %21 = load i32, ptr %9, align 4, !tbaa !29
  %22 = load i32, ptr %3, align 8, !tbaa !30
  %23 = icmp eq i32 %21, %22
  br i1 %23, label %24, label %.Vec_IntGrow.exit10_crit_edge.i

.Vec_IntGrow.exit10_crit_edge.i:                  ; preds = %15
  %.pre.i = load ptr, ptr %.phi.trans.insert.i, align 8, !tbaa !31
  br label %Vec_IntPush.exit

24:                                               ; preds = %15
  %25 = icmp slt i32 %21, 16
  br i1 %25, label %26, label %33

26:                                               ; preds = %24
  %27 = load ptr, ptr %.phi.trans.insert.i, align 8, !tbaa !31
  %.not9.i.i = icmp eq ptr %27, null
  br i1 %.not9.i.i, label %30, label %28

28:                                               ; preds = %26
  %29 = tail call dereferenceable_or_null(64) ptr @realloc(ptr noundef nonnull %27, i64 noundef 64) #10
  br label %Vec_IntGrow.exit.i

30:                                               ; preds = %26
  %31 = tail call noalias dereferenceable_or_null(64) ptr @malloc(i64 noundef 64) #11
  br label %Vec_IntGrow.exit.i

Vec_IntGrow.exit.i:                               ; preds = %30, %28
  %32 = phi ptr [ %29, %28 ], [ %31, %30 ]
  store ptr %32, ptr %.phi.trans.insert.i, align 8, !tbaa !31
  store i32 16, ptr %3, align 8, !tbaa !30
  br label %Vec_IntPush.exit

33:                                               ; preds = %24
  %34 = shl nuw nsw i32 %21, 1
  %35 = load ptr, ptr %.phi.trans.insert.i, align 8, !tbaa !31
  %.not9.i9.i = icmp eq ptr %35, null
  %36 = zext nneg i32 %34 to i64
  %37 = shl nuw nsw i64 %36, 2
  br i1 %.not9.i9.i, label %40, label %38

38:                                               ; preds = %33
  %39 = tail call ptr @realloc(ptr noundef nonnull %35, i64 noundef %37) #10
  br label %42

40:                                               ; preds = %33
  %41 = tail call noalias ptr @malloc(i64 noundef %37) #11
  br label %42

42:                                               ; preds = %40, %38
  %43 = phi ptr [ %39, %38 ], [ %41, %40 ]
  store ptr %43, ptr %.phi.trans.insert.i, align 8, !tbaa !31
  store i32 %34, ptr %3, align 8, !tbaa !30
  br label %Vec_IntPush.exit

Vec_IntPush.exit:                                 ; preds = %.Vec_IntGrow.exit10_crit_edge.i, %Vec_IntGrow.exit.i, %42
  %44 = phi ptr [ %.pre.i, %.Vec_IntGrow.exit10_crit_edge.i ], [ %43, %42 ], [ %32, %Vec_IntGrow.exit.i ]
  %45 = load i32, ptr %9, align 4, !tbaa !29
  %46 = add nsw i32 %45, 1
  store i32 %46, ptr %9, align 4, !tbaa !29
  %47 = sext i32 %45 to i64
  %48 = getelementptr inbounds i32, ptr %44, i64 %47
  store i32 %20, ptr %48, align 4, !tbaa !28
  %49 = load i64, ptr %.tr1420, align 4
  %50 = and i64 %49, 536870911
  %51 = sub nsw i64 0, %50
  %52 = getelementptr inbounds %struct.Gia_Obj_t_, ptr %.tr1420, i64 %51
  tail call void @Gia_AcecCollectXors_rec(ptr noundef nonnull %0, ptr noundef nonnull %52, ptr noundef %2, ptr noundef nonnull %3)
  %53 = load i64, ptr %.tr1420, align 4
  %54 = lshr i64 %53, 32
  %55 = and i64 %54, 536870911
  %56 = sub nsw i64 0, %55
  %57 = getelementptr inbounds %struct.Gia_Obj_t_, ptr %.tr1420, i64 %56
  %.val = load i64, ptr %57, align 4
  %58 = and i64 %.val, 2147483648
  %.not.i.i = icmp ne i64 %58, 0
  %59 = and i64 %.val, 536870911
  %60 = icmp eq i64 %59, 536870911
  %narrow.i.not.i = or i1 %.not.i.i, %60
  br i1 %narrow.i.not.i, label %Gia_ObjIsXor.exit.thread, label %Gia_ObjIsXor.exit

Gia_ObjIsXor.exit.thread:                         ; preds = %Gia_ObjIsXor.exit, %Vec_IntPush.exit, %4
  ret void
}